(lp0
S'shop'
p1
aS'rating'
p2
aS'What'
p3
aS'outdoor'
p4
aVforget
p5
aS'chinese'
p6
aS'when'
p7
aS'When'
p8
aS'liked'
p9
aS'arriving'
p10
aS'Tell'
p11
aS'Does'
p12
aS'done'
p13
aVgo
p14
aVopen
p15
aVfind
p16
aS'help'
p17
aS'Gaming'
p18
aS'rated'
p19
aV20
p20
aV21
p21
aS'located'
p22
aVvisit
p23
aS'groomed'
p24
aS'karaoke'
p25
aS'going'
p26
aS'location'
p27
aS'Rose'
p28
aS'has'
p29
aS'type'
p30
aVfriendly
p31
aVfirearms
p32
aVdo
p33
aVgood
p34
aVhit
p35
aS'decided'
p36
aVget
p37
aVclub
p38
aVserve
p39
aVvegan
p40
aVgame
p41
aVdecide
p42
aS'got'
p43
aS'arranging'
p44
aS'Where'
p45
aVeat
p46
aVarrange
p47
aS'made'
p48
aVbar
p49
aS'How'
p50
aS'was'
p51
aS'sizes'
p52
aS'flu'
p53
aS'say'
p54
aVtell
p55
aVleave
p56
aS'married'
p57
aVcan
p58
aS'hike'
p59
aVquick
p60
aS'fixed'
p61
aS'sushi'
p62
aS'are'
p63
aVavailable
p64
aS'wifi'
p65
aS'Which'
p66
aS'played'
p67
aS'Suggest'
p68
aS'is'
p69
aS'parking'
p70
aS'am'
p71
aS'None'
p72
aVcarry
p73
aVrate
p74
aVbuy
p75
aVrent
p76
aVhave
p77
aS'allowed'
p78
aVneed
p79
aS'organised'
p80
aS'sells'
p81
aVcheck
p82
aVwill
p83
aVwhat
p84
aS'broke'
p85
aVmood
p86
aVwant
p87
aVsit
p88
aVsuggest
p89
aVmake
p90
aS'that'
p91
aVable
p92
aVvalet
p93
aS'punctured'
p94
aS'how'
p95
aS'DURATION'
p96
aS'does'
p97
aVtake
p98
aS'which'
p99
aVprint
p100
aVplace
p101
aVnice
p102
aVlocate
p103
aVbe
p104
aVplay
p105
aS'used'
p106
aS"'s"
p107
aS'smoke'
p108
aS'Do'
p109
aS'who'
p110
aS'forgot'
p111
aVgluten-free
p112
aVhere
p113
aVstay
p114
aVentertain
p115
aVplan
p116
aVpuncture
p117
aVaccommodation
p118
aVnoisy
p119
aS'Was'
p120
aS'repaired'
p121
aS'Is'
p122
aVgroom
p123
aVbakery
p124
aVorganise
p125
aVdeposit
p126
aVallow
p127
aS'time'
p128
aS'Clothing'
p129
aS'dancing'
p130
a.