(lp0
V
p1
aVSummerlin
p2
aVCentennial
p3
aVEastside
p4
aVThe Strip
p5
aVNew Town
p6
aVAnthem
p7
aVUniversity
p8
aVChinatown
p9
aVSouth Summerlin
p10
aVNorth Valley
p11
aVDowntown
p12
aVSoutheast
p13
aVThe Lakes
p14
aVNorthwest
p15
aVWestside
p16
aVSpring Valley
p17
aVSunrise
p18
aVSouthwest
p19
a.