(lp0
VSmkGXa3XVZTXV04IcBkwLg
p1
aVoKATEDDmUGDDr-tIbDX5Pg
p2
aVVhazKK6zbHrdJaN-bmeHbQ
p3
aVCBb7z-MTbkzBvsUHBDqxEg
p4
aViL2-xJ4-eMsJk88PsbivbQ
p5
aVaHpsw58YOeHnoQt8Vn5O2w
p6
aVv7ZFEEqJBg_r8NCwHRP_2A
p7
aV9J-Vg2-uqjreSRtITaDlMg
p8
aVZDx54hHdiULbtD15JAy2fg
p9
aVxk-fOf_M39kDTgzfVgu0Tw
p10
aVuPwZUj4Hj-fHz1TU0LJJmQ
p11
aVWc1i5QsTKheJq6lstPAllA
p12
aVjSu2A7DibDjmUd3wUt6fPg
p13
aVkZspuWnM0Y-Losvk2Rl0lA
p14
aV3QzPhQ3ltbon0-1gC7Q18Q
p15
aVl_GV0hgEoTUf70uJVT0_hg
p16
aVaQUo8irLBywAZN26ln_Q1w
p17
aVI6Mw1vVkL6qgRLOYdLqvJQ
p18
aV3GEEy7RP6e4bT4LAiWFMFQ
p19
aVoupRStsBHVRsxhrEm8-DgA
p20
aVWKshNnFUI4uQee5kz6PUGg
p21
aV0odAupWjDV8gwhaLqyh1-A
p22
aVU73q64yVTVTKM0RgF8pIag
p23
aVzpoZ6WyQUYff18-z4ZU1mA
p24
aVUEuvtQTKNS0w53oJTrwS2Q
p25
aVL6kFtq-C4dJJZJGk5Q8vRw
p26
aVoL_fYqSHG63vR0TBMyoo_A
p27
aVsZsJooAzpKqOvDysphkqpQ
p28
aVEiEaPRsi2AW3j3xraIssrA
p29
aVwFU96ah70juScw822O4Zpw
p30
aVDYNeABXl0-ZviedEXX-gUw
p31
aVNbZ8kFxUrvAwHzo74r4fuQ
p32
aVw1gAEE4anHxNNZtJoJOTUg
p33
aVRt_M67qJU8x4QGhdYwnkAQ
p34
aVYhTwTm31WOl8ug7TCW8ubA
p35
aVcOinUcaLy9bZyvnTWub96Q
p36
aVNA0kabFgJySn6g6JxlCvPw
p37
aVeoyvbnRYQe-z85e8Rc6vAg
p38
aV1KhBzrqmU164bss64jR5uA
p39
aVhQ4IGBbdDcCUh11zUSzwCQ
p40
aVtMdgY7Ou4k3bYZZulJCiuQ
p41
aVgtVPsVK83JkeyrN1C1ozeQ
p42
aV2iTsRqUsPGRH1li1WVRvKQ
p43
aVROZCc1XMuAJpyhvTxotQ6w
p44
aV0ps5B5C6oNaRsGyUJzFCuw
p45
aVg9iIBuh-g4ld3w3kUWLMqw
p46
aVxDvl_i1g1HCJ4EmIRmwfqg
p47
aVKN-JL6uWCfDubCztgZ6zdw
p48
aVk09vTg5nRsyABM1MIjcKAg
p49
aVVD0zZKG_ZEz_VYlKLtu9Zg
p50
aVTiGaN6511lg_SgO2U75_FA
p51
aVdeL9fV4Jw3XhS0WqGRKgiA
p52
aV9Y0dDkFEe_spzPqccq2hIw
p53
aVyCUM58iPU8-G6KbgmzuKjA
p54
aVu12EUBQJoPDtyPQyKa7zTw
p55
aVFvC3W9E6rXUYx-cTxbnUiA
p56
aVR1AVTniig8uZfPy_2ObRQg
p57
aVxuAY1qnAMrzkNyTd0K0Tcg
p58
aVmAplaiZdCO9mN-lXXTeU5Q
p59
aV3QcTqsdxQBlSndBdMJBRhQ
p60
aVnyQsUIuE5hSPVbS4Z5O_UQ
p61
aVVzekjBEdqFdJsXEOWInA1A
p62
aV0WPXDs4ini3D7jpiy1Daqw
p63
aVTYGVaav4hWZioQlk9Ig78A
p64
aVCcMi0EM4KFqa_4hVe1oN3g
p65
aV6LkNSA3b3dufG5_dKfEQdQ
p66
aV94mQ3aJ2xjP6W-CV1j8cXg
p67
aV5tzNOeow197qn-a0tUJdVA
p68
aVhJX8WoV-KbFVHojZ6i83Cg
p69
aVqeFE3hKVFsvBTV-geLSszg
p70
aVg2K86Bq8Dz-ikGn_yqpwQQ
p71
aVX075p7boJU1j1JNHUj5UQQ
p72
aVXspg78dOvuedvuPEUwZBjw
p73
aV5keoVVM81g-nJw0Zdpl1nA
p74
aVqDxzLG96jUuH0F8NmX1rJg
p75
aV7yntwIUh2ZEkWGe9Zth7tw
p76
aVBk7MkkqXlEpeQvpjTCx0Yg
p77
aVvwo-VW7Bha4XP7evUqP4bQ
p78
aVNCR20zyNvXPb3gYpZqAvbQ
p79
aVjgtEoeE2uoA27J_UvbE20g
p80
aV5TeA1dyLR7MIor-DfIrYog
p81
aVekwpIseLUpi4a9CM6cS0JA
p82
aVRpNJRmL8qcWQgIyvt-DDSg
p83
aVQuIHYWB9l3NtyWETwwpCaQ
p84
aVFmij544FE1iOruoxI41kew
p85
aVkUQwaqwxKlScAQNhRx2_2w
p86
aVAxeQEz3-s9_1TyIo-G7UQw
p87
aVxowy4YxBXXGOYuajsxjwkA
p88
a.