(lp0
VlHCwqXdDSmlmqe88WpjeEg
p1
aVJWhqCvKTs5vLwIrhrbgx7Q
p2
aVVk1-8BhzJdZYiZjXPFwgEQ
p3
aVYoJt2bvCrYMSSyoeUO-YTg
p4
aVzmltWmTpoBt5sCU-5Kzj-Q
p5
aVmuD5-YKII_qOTRpbRWuOHA
p6
aV46UHF46E1z-W2dOmhv-Fng
p7
aVTKZ-6ejNjM_PdKdM4n5bDw
p8
aVSLVjLgWfUqgaXtmc0wmLiw
p9
aVkzwiQ54fopeTgGEIkgJ2dQ
p10
aVlcsfb0Sz5vzpBVShDsu2gw
p11
aVn0tnioUYabmpBrTwmIq08Q
p12
aV1WsXLCPRP2EZ9KoBRTkSbw
p13
aVuWIrZQx2BxKznWPjxWGRNg
p14
aVnHQtk-oJVNvVpvfFslv9Ug
p15
aVb5uCtk5iUcdeSWBNAx40Ug
p16
aVKHROx3AxX8btg70JDPbIqg
p17
aVWKrCvD-CoDZnCj3nsMCrRw
p18
aVZ8nyLyhdC0Fn5PkOZeDoGg
p19
aVlPK3iqwVwFPOMswRrejwZQ
p20
aVmZI_wVrLOjz4M-QIC9n-jA
p21
aVF-g0QH4IvrFtJUVRzDtzCA
p22
aVD35unF350QG06LXDe0Cv-Q
p23
aVWu8Ia0A5HkIlpu5ptfvcvg
p24
aVglVCZzuFSnf24UGYsOl2Vw
p25
aVXy8R4AnLP3LxwFIYoPfhJg
p26
aVYZoCp2VEeQBHVivrC5G0CA
p27
aV9hEPwq1GmU1dp3ZyBB9ASQ
p28
aVrHmILK3NBQWiRQMr9Sk8ew
p29
aVa2OCO4yHDEifuKzjor_yRQ
p30
aV5D3cAYturwbEqnj52b1Tmw
p31
aVejcVeQztxXY6NX2O2SE0Rw
p32
aV71bwX-tbmq4su8H7Q9oLOQ
p33
aVudGrKu1eJ_Qdd6O1PeUrmg
p34
aVR_LcZEX_Ua4JnC3CFg_ZmQ
p35
aVP7K47k9KAEaNWwvXinzsQA
p36
a.