(lp0
Vroofing
p1
aVkids activities
p2
aVtruck rental
p3
aVdrugstores
p4
aVdry cleaning & laundry
p5
aVfamily practice
p6
aVdog parks
p7
aVcheese shops
p8
aVprocess servers
p9
aVboating
p10
aVauto insurance
p11
aVchild care & day care
p12
aVendodontists
p13
aVdumpster rental
p14
aVhomeowner association
p15
aVteppanyaki
p16
aVpretzels
p17
aVtapas bars
p18
aVorganic stores
p19
aVatv rentals/tours
p20
aVsalad
p21
aVlife coach
p22
aVarchitects
p23
aVpaint-your-own pottery
p24
aVszechuan
p25
aVcontract law
p26
aVjuice bars & smoothies
p27
aVaudiologist
p28
aVpet boarding/pet sitting
p29
aVgrocery
p30
aVmortgage lenders
p31
aVpet adoption
p32
aVinterval training gyms
p33
aVhair removal
p34
aVbuffets
p35
aVcannabis tours
p36
aVcontractors
p37
aVbaseball fields
p38
aVadult education
p39
aVknife sharpening
p40
aVroof inspectors
p41
aVpathologists
p42
aVcandy stores
p43
aVcommunity service/non-profit
p44
aVbowling
p45
aVfingerprinting
p46
aVholistic animal care
p47
aVpatio coverings
p48
aVrestaurants
p49
aVvideo/film production
p50
aVformal wear
p51
aVhiking
p52
aVvinyl siding
p53
aVfabric stores
p54
aVwedding chapels
p55
aVbankruptcy law
p56
aVoutdoor gear
p57
aVdelis
p58
aVanesthesiologists
p59
aVtanning
p60
aVhalal
p61
aVcantonese
p62
aVherbs & spices
p63
aVnoodles
p64
aVcustomized merchandise
p65
aVvitamins & supplements
p66
aVlatin american
p67
aVshoe shine
p68
aVreal estate law
p69
aVchicken wings
p70
aVlaser eye surgery/lasik
p71
aVused car dealers
p72
aVdiagnostic services
p73
aVgold buyers
p74
aVantiques
p75
aVpest control
p76
aVpersonal care services
p77
aVfood stands
p78
aVorthodontists
p79
aVshopping centers
p80
aVmountain biking
p81
aVpick your own farms
p82
aVfirearm training
p83
aVnail salons
p84
aVphoto booth rentals
p85
aVcreperies
p86
aVjapanese curry
p87
aVski resorts
p88
aVmotorcycle gear
p89
aVautomotive
p90
aVurologists
p91
aVinterior design
p92
aVcosmetic surgeons
p93
aVpublic art
p94
aVtravel services
p95
aVlounges
p96
aVraces & competitions
p97
aVpersian/iranian
p98
aVshoe repair
p99
aVgymnastics
p100
aVmongolian
p101
aVanimal shelters
p102
aVportuguese
p103
aVpsychologists
p104
aVpet transportation
p105
aVpool & billiards
p106
aVhobby shops
p107
aVgyms
p108
aVbar crawl
p109
aVgreek
p110
aVzoos
p111
aVhardware stores
p112
aVvegan
p113
aVpet cremation services
p114
aVguns & ammo
p115
aVbattery stores
p116
aVcircuit training gyms
p117
aVwatch repair
p118
aVlimos
p119
aVchinese
p120
aVburgers
p121
aVcremation services
p122
aVhome decor
p123
aVrodeo
p124
aVfood trucks
p125
aVdiy auto shop
p126
aVhealth & medical
p127
aVbikes
p128
aVhealth insurance offices
p129
aVestate liquidation
p130
aVart museums
p131
aVyoga
p132
aVbike shop
p133
aVophthalmologists
p134
aVitalian
p135
aVhookah bars
p136
aVbrewing supplies
p137
aVmacarons
p138
aVtrusts
p139
aVboxing
p140
aVprivate jet charter
p141
aVbrazilian
p142
aVbuilding supplies
p143
aVlandscape architects
p144
aVlegal services
p145
aVreal estate photography
p146
aVshanghainese
p147
aVrestaurant supplies
p148
aVnutritionists
p149
aVdivorce & family law
p150
aVneurotologists
p151
aVhungarian
p152
aVvietnamese
p153
aVescape games
p154
aVcostumes
p155
aVsouvenir shops
p156
aVvocational & technical school
p157
aVbusiness law
p158
aVsports bars
p159
aVused bookstore
p160
aVrussian
p161
aVauto parts & supplies
p162
aVseafood markets
p163
aVfeng shui
p164
aVfirewood
p165
aVpublic relations
p166
aVvegetarian
p167
aVcar window tinting
p168
aVchicken shop
p169
aVtrophy shops
p170
aVflea markets
p171
aVpole dancing classes
p172
aVtrains
p173
aVpayroll services
p174
aVpainters
p175
aVcurrency exchange
p176
aVcouriers & delivery services
p177
aVgerman
p178
aVtobacco shops
p179
aVtaiwanese
p180
aVbus tours
p181
aVlaotian
p182
aVappliances
p183
aVbasque
p184
aVart classes
p185
aVhome cleaning
p186
aVpilates
p187
aVhypnosis/hypnotherapy
p188
aVbuses
p189
aVmassage schools
p190
aVpersonal injury law
p191
aVmedical law
p192
aVvideo game stores
p193
aVair duct cleaning
p194
aVjet skis
p195
aVsmog check stations
p196
aVpool & hot tub service
p197
aVhome services
p198
aVeyewear & opticians
p199
aVelementary schools
p200
aVartificial turf
p201
aVfood court
p202
aVpoke
p203
aVbingo halls
p204
aVaerial tours
p205
aVgastroenterologist
p206
aVrafting/kayaking
p207
aVtiki bars
p208
aVmarketing
p209
aVmobile dent repair
p210
aVelectricians
p211
aVcampgrounds
p212
aVtransmission repair
p213
aVoffice cleaning
p214
aVblow dry/out services
p215
aVtest preparation
p216
aVtuscan
p217
aVvehicle wraps
p218
aVpizza
p219
aVfurniture reupholstery
p220
aVpsychiatrists
p221
aVengraving
p222
aVarchery
p223
aVbeer garden
p224
aVrv parks
p225
aVsoba
p226
aVweb design
p227
aVplanetarium
p228
aVchristmas trees
p229
aVdinner theater
p230
aVseafood
p231
aVbritish
p232
aVchildbirth education
p233
aVdiscount store
p234
aVdiners
p235
aVclowns
p236
aVprofessional sports teams
p237
aVmovers
p238
aVchallenge courses
p239
aVscooter tours
p240
aVscreen printing
p241
aVsouth african
p242
aVpaintball
p243
aVbeer gardens
p244
aVafghan
p245
aVbail bondsmen
p246
aVholiday decorations
p247
aVbrazilian jiu-jitsu
p248
aVjapanese
p249
aVpub food
p250
aVbadminton
p251
aVhot dogs
p252
aVgift shops
p253
aVtabletop games
p254
aVvisitor centers
p255
aVlan centers
p256
aVshredding services
p257
aVsalvadoran
p258
aVdrywall installation & repair
p259
aVclock repair
p260
aVwills
p261
aVperforming arts
p262
aVreptile shops
p263
aVpodiatrists
p264
aVbubble soccer
p265
aVdoulas
p266
aVshaved ice
p267
aVchildren's clothing
p268
aVdance studios
p269
aVglass & mirrors
p270
aVaccountants
p271
aVchiropractors
p272
aVshades & blinds
p273
aVdim sum
p274
aVfitness & instruction
p275
aVlocal fish stores
p276
aVsummer camps
p277
aVoffice equipment
p278
aVear nose & throat
p279
aVpediatric dentists
p280
aVfitness/exercise equipment
p281
aVlaundry services
p282
aVmen's clothing
p283
aVbistros
p284
aVmusic & dvds
p285
aVdiagnostic imaging
p286
aVpain management
p287
aVpowder coating
p288
aVpaddleboarding
p289
aVdjs
p290
aVpatisserie/cake shop
p291
aVbartending schools
p292
aVauto loan providers
p293
aVcocktail bars
p294
aVlaundromat
p295
aVdive bars
p296
aVchildren's museums
p297
aVplaygrounds
p298
aVbaby gear & furniture
p299
aVparty characters
p300
aVtasting classes
p301
aVwater heater installation/repair
p302
aVpressure washers
p303
aVbatting cages
p304
aVoncologist
p305
aVhats
p306
aVweight loss centers
p307
aVaccessories
p308
aVwatches
p309
aVactive life
p310
aVpreventive medicine
p311
aVdisc golf
p312
aVfarming equipment
p313
aVhotels & travel
p314
aVmusic venues
p315
aVhospitals
p316
aVinfectious disease specialists
p317
aVwindow washing
p318
aVgolf equipment
p319
aVbeauty & spas
p320
aVbutcher
p321
aVpet breeders
p322
aVreal estate services
p323
aVairport lounges
p324
aVpet services
p325
aVguest houses
p326
aVethic grocery
p327
aVhair salons
p328
aVcar wash
p329
aVtitle loans
p330
aVmass media
p331
aVmedical transportation
p332
aVcoffee & tea
p333
aVoptometrists
p334
aVfree diving
p335
aVlakes
p336
aVpersonal shopping
p337
aVtoxicologists
p338
aVoccupational therapy
p339
aVcomedy clubs
p340
aVbed & breakfast
p341
aVdry cleaning
p342
aVhydro-jetting
p343
aVmidwives
p344
aVhearing aid providers
p345
aVhair loss centers
p346
aVestate planning law
p347
aVmobile phone accessories
p348
aVamateur sports teams
p349
aVbody shops
p350
aVcuban
p351
aVdog walkers
p352
aVdance schools
p353
aVauction houses
p354
aVcsa
p355
aVappliances & repair
p356
aVmuseums
p357
aVfalafel
p358
aVorthopedists
p359
aVlingerie
p360
aVpaint & sip
p361
aVhaunted houses
p362
aVprivate investigation
p363
aVsolar installation
p364
aVemployment agencies
p365
aVrugs
p366
aVmassage
p367
aVsoftware development
p368
aVgeneral litigation
p369
aVparty & event planning
p370
aVuniforms
p371
aVfurniture repair
p372
aVpool halls
p373
aVtelecommunications
p374
aVwine tasting room
p375
aVkeys & locksmiths
p376
aVreal estate
p377
aVhospice
p378
aVdiving
p379
aVprofessional services
p380
aVscuba diving
p381
aVfuel docks
p382
aVcupcakes
p383
aVsports medicine
p384
aVrv dealers
p385
aVcommissioned artists
p386
aVswimwear
p387
aVtrainers
p388
aVfood tours
p389
aVindian
p390
aVkickboxing
p391
aVbubble tea
p392
aVspine surgeons
p393
aVmortgage brokers
p394
aVwine & spirits
p395
aVbarbeque
p396
aVrecreation centers
p397
aVpubs
p398
aVnurseries & gardening
p399
aVtransportation
p400
aVhome theatre installation
p401
aVmedical cannabis referrals
p402
aVinsulation installation
p403
aVcar share services
p404
aVpedicabs
p405
aVretirement homes
p406
aVtv mounting
p407
aVadult
p408
aVlandmarks & historical buildings
p409
aVnew mexican cuisine
p410
aVnaturopathic/holistic
p411
aVboot camps
p412
aVcooking classes
p413
aVcounseling & mental health
p414
aVcaterers
p415
aVvacation rentals
p416
aVsugaring
p417
aVclub crawl
p418
aVfirst aid classes
p419
aVwaxing
p420
aVart schools
p421
aVprinting services
p422
aVskate parks
p423
aVbookstores
p424
aVplumbing
p425
aVhong kong style cafe
p426
aVtaxis
p427
aVbartenders
p428
aVsmokehouse
p429
aVcryotherapy
p430
aVgarage door services
p431
aV& probates
p432
aVbreakfast & brunch
p433
aVpet photography
p434
aVapartments
p435
aVlaser tag
p436
aVradio stations
p437
aVfire protection services
p438
aVamerican (traditional)
p439
aVhome inspectors
p440
aVoutlet stores
p441
aVvape shops
p442
aVmartial arts
p443
aVart space rentals
p444
aVmusic production services
p445
aVcajun/creole
p446
aVmontessori schools
p447
aVtelevision service providers
p448
aVwater parks
p449
aVfast food
p450
aVinternet cafes
p451
aVknitting supplies
p452
aVaquariums
p453
aVchampagne bars
p454
aVwaffles
p455
aVdelicatessen
p456
aVhot air balloons
p457
aVtrailer repair
p458
aVtraffic ticketing law
p459
aVsoccer
p460
aVpacking services
p461
aVpiano bars
p462
aVcaricatures
p463
aVfurniture stores
p464
aVukrainian
p465
aVfood
p466
aVrheumatologists
p467
aVassisted living facilities
p468
aVgeneral dentistry
p469
aVembroidery & crochet
p470
aVcardio classes
p471
aVphotographers
p472
aVmaternity wear
p473
aVtree services
p474
aVboat repair
p475
aVprint media
p476
aVmoroccan
p477
aVbeaches
p478
aVsurfing
p479
aVethnic food
p480
aVjazz & blues
p481
aVday spas
p482
aVart restoration
p483
aVpets
p484
aVcomputers
p485
aVlocal services
p486
aVtutoring centers
p487
aVtex-mex
p488
aVreflexology
p489
aVauto upholstery
p490
aVcriminal defense law
p491
aVneurologist
p492
aVallergists
p493
aVconvenience stores
p494
aVcomfort food
p495
aVfestivals
p496
aVsurf shop
p497
aVspecial education
p498
aVchocolatiers & shops
p499
aVmedical spas
p500
aVbespoke clothing
p501
aVjunkyards
p502
aVauto detailing
p503
aVracing experience
p504
aVrv rental
p505
aVinternational grocery
p506
aVfishing
p507
aVshared office spaces
p508
aVcountry dance halls
p509
aVlanguage schools
p510
aVtiling
p511
aVhealth retreats
p512
aVspeech therapists
p513
aVhydroponics
p514
aVit services & computer repair
p515
aVprosthodontists
p516
aVtanning beds
p517
aVmortuary services
p518
aVgolf lessons
p519
aVtrailer dealers
p520
aVgluten-free
p521
aVtrampoline parks
p522
aVhome window tinting
p523
aVmusicians
p524
aVclothing rental
p525
aVsushi bars
p526
aVseptic services
p527
aVbulgarian
p528
aVtea rooms
p529
aVspeakeasies
p530
aVdecks & railing
p531
aVnanny services
p532
aVface painting
p533
aVnewspapers & magazines
p534
aVpermanent makeup
p535
aVplacenta encapsulations
p536
aVcosmetics & beauty supply
p537
aVsaunas
p538
aVhair extensions
p539
aVsession photography
p540
aVeducational services
p541
aVgelato
p542
aVirish
p543
aVtranslation services
p544
aVcollege counseling
p545
aVfood delivery services
p546
aVmuay thai
p547
aVvideographers
p548
aVsporting goods
p549
aVamusement parks
p550
aVdoor sales/installation
p551
aVspray tanning
p552
aVpop-up shops
p553
aVfertility
p554
aVdrive-in theater
p555
aVpersonal assistants
p556
aVpublic transportation
p557
aVsecurity services
p558
aVmetal fabricators
p559
aVsynagogues
p560
aVmediterranean
p561
aVfish & chips
p562
aVtax law
p563
aVdepartment stores
p564
aVmotorcycle dealers
p565
aVself storage
p566
aVmedical centers
p567
aVmotorcycle rental
p568
aVeducation
p569
aVrecycling center
p570
aVwildlife control
p571
aVpersonal chefs
p572
aVeyebrow services
p573
aVcaribbean
p574
aVdance clubs
p575
aVamerican (new)
p576
aVinvesting
p577
aVcosmetology schools
p578
aVairport shuttles
p579
aVpan asian
p580
aVcoffeeshops
p581
aVbicycles
p582
aVoil change stations
p583
aVacne treatment
p584
aVroadside assistance
p585
aVfurniture assembly
p586
aVnail technicians
p587
aVdo-it-yourself food
p588
aVcomic books
p589
aVmen's hair salons
p590
aVjunk removal & hauling
p591
aVgas & service stations
p592
aVthemed cafes
p593
aVshopping
p594
aVhistorical tours
p595
aVhawaiian
p596
aVteeth whitening
p597
aVirish pub
p598
aVizakaya
p599
aVvalet services
p600
aVutilities
p601
aVsleep specialists
p602
aVargentine
p603
aVhandyman
p604
aVscreen printing/t-shirt printing
p605
aVreal estate agents
p606
aVthai
p607
aVvenezuelan
p608
aVhome automation
p609
aVpulmonologist
p610
aVcar auctions
p611
aVhigh fidelity audio equipment
p612
aVskin care
p613
aVfood banks
p614
aVteam building activities
p615
aVfarmers market
p616
aVcommercial truck repair
p617
aVmagicians
p618
aVscandinavian
p619
aVbeer bar
p620
aVcommunity centers
p621
aVsingaporean
p622
aVvehicle shipping
p623
aVcinema
p624
aVasian fusion
p625
aVmattresses
p626
aVarts & crafts
p627
aVwholesalers
p628
aVflyboarding
p629
aVmags
p630
aVfarms
p631
aVblood & plasma donation centers
p632
aVtours
p633
aVfences & gates
p634
aVthreading services
p635
aVlivestock feed & supply
p636
aVgun/rifle ranges
p637
aVpool cleaners
p638
aVmakeup artists
p639
aVcommercial real estate
p640
aVturkish
p641
aVlaser hair removal
p642
aVafrican
p643
aVlive/raw food
p644
aVmotorsport vehicle dealers
p645
aVbusiness consulting
p646
aVpet groomers
p647
aVgay bars
p648
aVpreschools
p649
aVsolar panel cleaning
p650
aVproctologists
p651
aVemergency pet hospital
p652
aVinternet service providers
p653
aVshaved snow
p654
aVart galleries
p655
aVsouthern
p656
aVsewing & alterations
p657
aVtacos
p658
aVregistration services
p659
aVpopcorn shops
p660
aVyelp events
p661
aVgerontologists
p662
aVcooking schools
p663
aVosteopathic physicians
p664
aVairport terminals
p665
aVpiano services
p666
aVphysical therapy
p667
aVuniversity housing
p668
aVleisure centers
p669
aVfloat spa
p670
aVmobile phone repair
p671
aVairlines
p672
aVpost offices
p673
aVcasinos
p674
aVhot tub & pool
p675
aVpawn shops
p676
aVfire departments
p677
aVparty bus rentals
p678
aVhostels
p679
aVcards & stationery
p680
aVirrigation
p681
aVstadiums & arenas
p682
aVemergency medicine
p683
aVstucco services
p684
aVvinyl records
p685
aVcpr classes
p686
aVbotanical gardens
p687
aVreiki
p688
aVtires
p689
aVwine tours
p690
aVproperty management
p691
aVwalking tours
p692
aVwine bars
p693
aVlife insurance
p694
aVhotels
p695
aVfondue
p696
aVvintage & consignment
p697
aVgolf equipment shops
p698
aVcareer counseling
p699
aVshipping centers
p700
aVdonuts
p701
aVbagels
p702
aVtennis
p703
aVsocial clubs
p704
aVholiday decorating services
p705
aVlibraries
p706
aVbuddhist temples
p707
aVtowing
p708
aVcarpenters
p709
aVart tours
p710
aVbridal
p711
aVcolonics
p712
aVwalk-in clinics
p713
aVgutter services
p714
aVhome network installation
p715
aVwaterproofing
p716
aVresorts
p717
aVmassage therapy
p718
aVcafes
p719
aVhouse sitters
p720
aVhimalayan/nepalese
p721
aVrv repair
p722
aVcommunity gardens
p723
aVspecialty schools
p724
aVfinancial advising
p725
aVradiologists
p726
aVwater stores
p727
aVziplining
p728
aVhome health care
p729
aVpaint stores
p730
aVshutters
p731
aVoutdoor furniture stores
p732
aVlebanese
p733
aVswimming lessons/schools
p734
aVtai chi
p735
aVcycling classes
p736
aVluggage
p737
aVflowers & gifts
p738
aVsoup
p739
aVcar rental
p740
aVreligious schools
p741
aVhair stylists
p742
aVhead shops
p743
aVwedding planning
p744
aVauto customization
p745
aVdoctors
p746
aVmasonry/concrete
p747
aVpumpkin patches
p748
aVauto repair
p749
aVperuvian
p750
aVbarre classes
p751
aVspiritual shop
p752
aVtalent agencies
p753
aVawnings
p754
aVmobile phones
p755
aVtraffic schools
p756
aVcountry clubs
p757
aVheating & air conditioning/hvac
p758
aVemployment law
p759
aVobservatories
p760
aVmotorcycle repair
p761
aVorthotics
p762
aVappraisal services
p763
aVhorse boarding
p764
aVchimney sweeps
p765
aVnotaries
p766
aVfireplace services
p767
aVhome energy auditors
p768
aVstreet vendors
p769
aVtapas/small plates
p770
aVbookkeepers
p771
aVjewelry repair
p772
aVsignmaking
p773
aVsenior centers
p774
aVwholesale stores
p775
aVarabian
p776
aVmobility equipment sales & services
p777
aVcardiologists
p778
aVchurches
p779
aVbrasseries
p780
aVwigs
p781
aVbelgian
p782
aVdebt relief services
p783
aVpet training
p784
aVpropane
p785
aVskating rinks
p786
aVemergency rooms
p787
aVday camps
p788
aVpasta shops
p789
aVfur clothing
p790
aVkaraoke
p791
aVscavenger hunts
p792
aVparty supplies
p793
aVmusical instruments & teachers
p794
aVfilipino
p795
aVtoy stores
p796
aVshoe stores
p797
aVcannabis dispensaries
p798
aVnightlife
p799
aVmiddle eastern
p800
aVgardeners
p801
aVethnic grocery
p802
aVdermatologists
p803
aVaircraft repairs
p804
aVimmigration law
p805
aVdriving schools
p806
aVleather goods
p807
aVtelevision stations
p808
aVtravel agents
p809
aVimported food
p810
aVsteakhouses
p811
aVfashion
p812
aVthrift stores
p813
aVrecording & rehearsal studios
p814
aVmiddle schools & high schools
p815
aVpublic services & government
p816
aVdesserts
p817
aVenvironmental abatement
p818
aVpuerto rican
p819
aVvenues & event spaces
p820
aVnurse practitioner
p821
aVmeditation centers
p822
aVpolish
p823
aVairsoft
p824
aVboat charters
p825
aVmosques
p826
aVevent planning & services
p827
aVobstetricians & gynecologists
p828
aVjewelry
p829
aVhome & garden
p830
aVendocrinologists
p831
aVvacation rental agents
p832
aVherbal shops
p833
aVfruits & veggies
p834
aVbeer
p835
aVmatchmakers
p836
aVsports wear
p837
aVcarpeting
p838
aVparty bike rentals
p839
aVbanks & credit unions
p840
aVmusical instrument services
p841
aVlaboratory testing
p842
aVeditorial services
p843
aVdentists
p844
aVhorse equipment shops
p845
aViv hydration
p846
aVfurniture rental
p847
aVrock climbing
p848
aVclimbing
p849
aVethiopian
p850
aVcarpet installation
p851
aVguitar stores
p852
aVhome organization
p853
aVsports psychologists
p854
aVgo karts
p855
aVairports
p856
aVbike rentals
p857
aVskydiving
p858
aVcondominiums
p859
aVwomen's clothing
p860
aVprosthetics
p861
aVsoul food
p862
aVplus size fashion
p863
aVwineries
p864
aVlighting fixtures & equipment
p865
aVkitchen & bath
p866
aVisland pub
p867
aVwraps
p868
aVhindu temples
p869
aVwheel & rim repair
p870
aVice cream & frozen yogurt
p871
aVeyelash service
p872
aVbars
p873
aVgame truck rental
p874
aVcountertop installation
p875
aVcabinetry
p876
aVperiodontists
p877
aVveterinarians
p878
aVhealth markets
p879
aVevent photography
p880
aVcosmetic dentists
p881
aVhenna artists
p882
aVwhiskey bars
p883
aVtattoo
p884
aVelectronics repair
p885
aVacai bowls
p886
aVadult entertainment
p887
aVfrench
p888
aVcarpet cleaning
p889
aVparenting classes
p890
aVboat dealers
p891
aVwater delivery
p892
aVcourthouses
p893
aVrace tracks
p894
aVacupuncture
p895
aVdamage restoration
p896
aVkorean
p897
aVpakistani
p898
aVtattoo removal
p899
aVbackshop
p900
aVused
p901
aVhome & rental insurance
p902
aVpet stores
p903
aVcheck cashing/pay-day loans
p904
aVsecurity systems
p905
aVbike repair
p906
aVcultural center
p907
aVhorse racing
p908
aVtax services
p909
aVcoffee & tea supplies
p910
aVlandscaping
p911
aVmini golf
p912
aVframing
p913
aVgastropubs
p914
aVrest stops
p915
aVcar stereo installation
p916
aVpediatricians
p917
aVbakeries
p918
aVmusic & video
p919
aVcar buyers
p920
aVreligious organizations
p921
aVaquarium services
p922
aVhydrotherapy
p923
aVswimming pools
p924
aVarts & entertainment
p925
aVbreweries
p926
aVmalaysian
p927
aVrefinishing services
p928
aVfuneral services & cemeteries
p929
aVgraphic design
p930
aVcustom cakes
p931
aVmodern european
p932
aVphotography stores & services
p933
aVprivate tutors
p934
aVparty equipment rentals
p935
aVurgent care
p936
aVpoutineries
p937
aVpsychics & astrologers
p938
aVdui law
p939
aVbarbers
p940
aVgolf
p941
aVramen
p942
aVcolleges & universities
p943
aVrehabilitation center
p944
aVskilled nursing
p945
aVcannabis clinics
p946
aVbooks
p947
aVbird shops
p948
aVhorseback riding
p949
aVparking
p950
aVflight instruction
p951
aVvideos & video game rental
p952
aVdrive-thru bars
p953
aVwindshield installation & repair
p954
aVinsurance
p955
aVflooring
p956
aVofficiants
p957
aVart supplies
p958
aVopera & ballet
p959
aVsurgeons
p960
aVoxygen bars
p961
aVparks
p962
aVskate shops
p963
aVwater purification services
p964
aVelectronics
p965
aVlactation services
p966
aVcolombian
p967
aVbike repair/maintenance
p968
aVmedical supplies
p969
aVsports clubs
p970
aVdepartments of motor vehicles
p971
aVdental hygienists
p972
aVduty-free shops
p973
aVstreet art
p974
aVhot pot
p975
aVdata recovery
p976
aVarcades
p977
aVhome staging
p978
aVolive oil
p979
aVauto glass services
p980
aVauto electric services
p981
aVspecialty food
p982
aVflorists
p983
aVoral surgeons
p984
aVcoffee roasteries
p985
aVspanish
p986
aVpiercing
p987
aVwindows installation
p988
aVlawyers
p989
aVadvertising
p990
aVworkers compensation law
p991
aVmailbox centers
p992
aVinternal medicine
p993
aVkosher
p994
aVcafeteria
p995
aVmexican
p996
aVcar dealers
p997
aVticket sales
p998
aVsandwiches
p999
aVlocal flavor
p1000
aVmeat shops
p1001
aVtraditional chinese medicine
p1002
aVfinancial services
p1003
aVveterans organizations
p1004
aVpolice departments
p1005
aVcabaret
p1006
aVcheesesteaks
p1007
a.